target datalayout = "e-m:e-p270:32:32-p271:32:32-p272:64:64-i64:64-i128:128-f80:128-n8:16:32:64-S128"
target triple = "x86_64-pc-linux-gnu"

%"class.OpenImageIO::v3_1_0::span.20" = type { ptr, i64 }

; Function Attrs: inlinehint mustprogress nounwind uwtable
define linkonce_odr hidden noundef zeroext i16 @_ZN11OpenImageIO6v3_1_08byteswapItEET_S2_(i16 noundef zeroext %0) #13 comdat {
  %2 = alloca i16, align 2
  store i16 %0, ptr %2, align 2, !tbaa !113
  %3 = load i16, ptr %2, align 2, !tbaa !113
  %4 = call i16 @llvm.bswap.i16(i16 %3)
  ret i16 %4
}

; Function Attrs: mustprogress nounwind uwtable
define linkonce_odr hidden noundef i64 @_ZNK11OpenImageIO6v3_1_04spanIKhLm18446744073709551615EE4sizeEv(ptr noundef nonnull align 8 dereferenceable(16) %0) #7 comdat align 2 {
  %2 = alloca ptr, align 8
  store ptr %0, ptr %2, align 8, !tbaa !91
  %3 = load ptr, ptr %2, align 8
  %4 = getelementptr inbounds nuw %"class.OpenImageIO::v3_1_0::span.20", ptr %3, i32 0, i32 1
  %5 = load i64, ptr %4, align 8, !tbaa !95
  ret i64 %5
}

; Function Attrs: inlinehint mustprogress uwtable
define linkonce_odr hidden void @_ZN11OpenImageIO6v3_1_011swap_endianItEEvPT_i(ptr noundef %0, i32 noundef %1) #12 comdat {
  %3 = alloca ptr, align 8
  %4 = alloca i32, align 4
  %5 = alloca i32, align 4
  store ptr %0, ptr %3, align 8, !tbaa !116
  store i32 %1, ptr %4, align 4, !tbaa !32
  call void @llvm.lifetime.start.p0(i64 4, ptr %5) #3
  store i32 0, ptr %5, align 4, !tbaa !32
  br label %6

6:                                                ; preds = %22, %2
  %7 = load i32, ptr %5, align 4, !tbaa !32
  %8 = load i32, ptr %4, align 4, !tbaa !32
  %9 = icmp slt i32 %7, %8
  br i1 %9, label %11, label %10

10:                                               ; preds = %6
  call void @llvm.lifetime.end.p0(i64 4, ptr %5) #3
  br label %25

11:                                               ; preds = %6
  %12 = load ptr, ptr %3, align 8, !tbaa !116
  %13 = load i32, ptr %5, align 4, !tbaa !32
  %14 = sext i32 %13 to i64
  %15 = getelementptr inbounds i16, ptr %12, i64 %14
  %16 = load i16, ptr %15, align 2, !tbaa !113
  %17 = call noundef zeroext i16 @_ZN11OpenImageIO6v3_1_08byteswapItEET_S2_(i16 noundef zeroext %16)
  %18 = load ptr, ptr %3, align 8, !tbaa !116
  %19 = load i32, ptr %5, align 4, !tbaa !32
  %20 = sext i32 %19 to i64
  %21 = getelementptr inbounds i16, ptr %18, i64 %20
  store i16 %17, ptr %21, align 2, !tbaa !113
  br label %22

22:                                               ; preds = %11
  %23 = load i32, ptr %5, align 4, !tbaa !32
  %24 = add nsw i32 %23, 1
  store i32 %24, ptr %5, align 4, !tbaa !32
  br label %6, !llvm.loop !118

25:                                               ; preds = %10
  ret void
}

; Function Attrs: mustprogress nounwind uwtable
define linkonce_odr hidden noundef ptr @_ZNK11OpenImageIO6v3_1_04spanIKhLm18446744073709551615EE4dataEv(ptr noundef nonnull align 8 dereferenceable(16) %0) #7 comdat align 2 {
  %2 = alloca ptr, align 8
  store ptr %0, ptr %2, align 8, !tbaa !91
  %3 = load ptr, ptr %2, align 8
  %4 = getelementptr inbounds nuw %"class.OpenImageIO::v3_1_0::span.20", ptr %3, i32 0, i32 0
  %5 = load ptr, ptr %4, align 8, !tbaa !93
  ret ptr %5
}

; Function Attrs: mustprogress nounwind uwtable
define linkonce_odr hidden noundef i64 @_ZSt4sizeIKhLm18446744073709551615EEmRKN11OpenImageIO6v3_1_04spanIT_XT0_EEE(ptr noundef nonnull align 8 dereferenceable(16) %0) #7 comdat {
  %2 = alloca ptr, align 8
  store ptr %0, ptr %2, align 8, !tbaa !91
  %3 = load ptr, ptr %2, align 8, !tbaa !91
  %4 = call noundef i64 @_ZNK11OpenImageIO6v3_1_04spanIKhLm18446744073709551615EE4sizeEv(ptr noundef nonnull align 8 dereferenceable(16) %3) #3
  ret i64 %4
}

; Function Attrs: mustprogress uwtable
define hidden noundef zeroext i1 @_ZN11OpenImageIO6v3_1_03pvt10decode_ifdENS0_4spanIKhLm18446744073709551615EEEmRNS0_9ImageSpecERKNS1_6TagMapERSt3setImSt4lessImESaImEEbi(ptr %0, i64 %1, i64 noundef %2, ptr noundef nonnull align 8 dereferenceable(160) %3, ptr noundef nonnull align 8 dereferenceable(8) %4, ptr noundef nonnull align 8 dereferenceable(48) %5, i1 noundef zeroext %6, i32 noundef %7) #5 {
  %9 = alloca i1, align 1
  %10 = alloca %"class.OpenImageIO::v3_1_0::span.20", align 8
  %11 = alloca i64, align 8
  %12 = alloca ptr, align 8
  %13 = alloca ptr, align 8
  %14 = alloca ptr, align 8
  %15 = alloca i8, align 1
  %16 = alloca i32, align 4
  %17 = alloca ptr, align 8
  %18 = alloca i16, align 2
  %19 = alloca i32, align 4
  %20 = alloca i32, align 4
  %21 = alloca %"class.OpenImageIO::v3_1_0::span.20", align 8
  %22 = getelementptr inbounds nuw { ptr, i64 }, ptr %10, i32 0, i32 0
  store ptr %0, ptr %22, align 8
  %23 = getelementptr inbounds nuw { ptr, i64 }, ptr %10, i32 0, i32 1
  store i64 %1, ptr %23, align 8
  store i64 %2, ptr %11, align 8, !tbaa !13
  store ptr %3, ptr %12, align 8, !tbaa !100
  store ptr %4, ptr %13, align 8, !tbaa !3
  store ptr %5, ptr %14, align 8, !tbaa !111
  %24 = zext i1 %6 to i8
  store i8 %24, ptr %15, align 1, !tbaa !102
  store i32 %7, ptr %16, align 4, !tbaa !32
  %25 = load i64, ptr %11, align 8, !tbaa !13
  %26 = add i64 %25, 2
  %27 = call noundef i64 @_ZSt4sizeIKhLm18446744073709551615EEmRKN11OpenImageIO6v3_1_04spanIT_XT0_EEE(ptr noundef nonnull align 8 dereferenceable(16) %10)
  %28 = icmp ugt i64 %26, %27
  br i1 %28, label %29, label %30

29:                                               ; preds = %8
  store i1 false, ptr %9, align 1
  br label %77

30:                                               ; preds = %8
  call void @llvm.lifetime.start.p0(i64 8, ptr %17) #3
  %31 = call noundef ptr @_ZNK11OpenImageIO6v3_1_04spanIKhLm18446744073709551615EE4dataEv(ptr noundef nonnull align 8 dereferenceable(16) %10) #3
  %32 = load i64, ptr %11, align 8, !tbaa !13
  %33 = getelementptr inbounds nuw i8, ptr %31, i64 %32
  store ptr %33, ptr %17, align 8, !tbaa !64
  call void @llvm.lifetime.start.p0(i64 2, ptr %18) #3
  %34 = load ptr, ptr %17, align 8, !tbaa !64
  call void @llvm.memcpy.p0.p0.i64(ptr align 2 %18, ptr align 1 %34, i64 2, i1 false)
  %35 = load i8, ptr %15, align 1, !tbaa !102, !range !109, !noundef !110
  %36 = trunc i8 %35 to i1
  br i1 %36, label %37, label %38

37:                                               ; preds = %30
  call void @_ZN11OpenImageIO6v3_1_011swap_endianItEEvPT_i(ptr noundef %18, i32 noundef 1)
  br label %38

38:                                               ; preds = %37, %30
  %39 = load i64, ptr %11, align 8, !tbaa !13
  %40 = add i64 %39, 2
  %41 = load i16, ptr %18, align 2, !tbaa !113
  %42 = zext i16 %41 to i64
  %43 = mul i64 %42, 12
  %44 = add i64 %40, %43
  %45 = call noundef i64 @_ZSt4sizeIKhLm18446744073709551615EEmRKN11OpenImageIO6v3_1_04spanIT_XT0_EEE(ptr noundef nonnull align 8 dereferenceable(16) %10)
  %46 = icmp ugt i64 %44, %45
  br i1 %46, label %47, label %48

47:                                               ; preds = %38
  store i1 false, ptr %9, align 1
  store i32 1, ptr %19, align 4
  br label %76

48:                                               ; preds = %38
  call void @llvm.lifetime.start.p0(i64 4, ptr %20) #3
  store i32 0, ptr %20, align 4, !tbaa !32
  br label %49

49:                                               ; preds = %72, %48
  %50 = load i32, ptr %20, align 4, !tbaa !32
  %51 = load i16, ptr %18, align 2, !tbaa !113
  %52 = zext i16 %51 to i32
  %53 = icmp slt i32 %50, %52
  br i1 %53, label %55, label %54

54:                                               ; preds = %49
  store i32 2, ptr %19, align 4
  call void @llvm.lifetime.end.p0(i64 4, ptr %20) #3
  br label %75

55:                                               ; preds = %49
  %56 = load ptr, ptr %12, align 8, !tbaa !100
  %57 = load ptr, ptr %17, align 8, !tbaa !64
  %58 = getelementptr inbounds i8, ptr %57, i64 2
  %59 = load i32, ptr %20, align 4, !tbaa !32
  %60 = sext i32 %59 to i64
  %61 = mul i64 %60, 12
  %62 = getelementptr inbounds nuw i8, ptr %58, i64 %61
  call void @llvm.memcpy.p0.p0.i64(ptr align 8 %21, ptr align 8 %10, i64 16, i1 false), !tbaa.struct !104
  %63 = load i8, ptr %15, align 1, !tbaa !102, !range !109, !noundef !110
  %64 = trunc i8 %63 to i1
  %65 = load i32, ptr %16, align 4, !tbaa !32
  %66 = load ptr, ptr %14, align 8, !tbaa !111
  %67 = load ptr, ptr %13, align 8, !tbaa !3
  %68 = getelementptr inbounds nuw { ptr, i64 }, ptr %21, i32 0, i32 0
  %69 = load ptr, ptr %68, align 8
  %70 = getelementptr inbounds nuw { ptr, i64 }, ptr %21, i32 0, i32 1
  %71 = load i64, ptr %70, align 8
  call void @_ZN11OpenImageIO6v3_1_0L13read_exif_tagERNS0_9ImageSpecEPK12TIFFDirEntryNS0_4spanIKhLm18446744073709551615EEEbiRSt3setImSt4lessImESaImEERKNS0_3pvt6TagMapE(ptr noundef nonnull align 8 dereferenceable(160) %56, ptr noundef %62, ptr %69, i64 %71, i1 noundef zeroext %64, i32 noundef %65, ptr noundef nonnull align 8 dereferenceable(48) %66, ptr noundef nonnull align 8 dereferenceable(8) %67)
  br label %72

72:                                               ; preds = %55
  %73 = load i32, ptr %20, align 4, !tbaa !32
  %74 = add nsw i32 %73, 1
  store i32 %74, ptr %20, align 4, !tbaa !32
  br label %49, !llvm.loop !114

75:                                               ; preds = %54
  store i1 true, ptr %9, align 1
  store i32 1, ptr %19, align 4
  br label %76

76:                                               ; preds = %75, %47
  call void @llvm.lifetime.end.p0(i64 2, ptr %18) #3
  call void @llvm.lifetime.end.p0(i64 8, ptr %17) #3
  br label %77

77:                                               ; preds = %76, %29
  %78 = load i1, ptr %9, align 1
  ret i1 %78
}