; Function Attrs: mustprogress uwtable
define hidden noundef zeroext i1 @_ZN11OpenImageIO6v3_1_03pvt10decode_ifdENS0_4spanIKhLm18446744073709551615EEEmRNS0_9ImageSpecERKNS1_6TagMapERSt3setImSt4lessImESaImEEbi(ptr %0, i64 %1, i64 noundef %2, ptr noundef nonnull align 8 dereferenceable(160) %3, ptr noundef nonnull readonly align 8 captures(none) dereferenceable(8) %4, ptr noundef nonnull align 8 dereferenceable(48) %5, i1 noundef zeroext %6, i32 noundef %7) local_unnamed_addr #4 {
  %9 = add i64 %2, 2
  %10 = icmp ugt i64 %9, %1
  br i1 %10, label %.loopexit, label %_ZN11OpenImageIO6v3_1_011swap_endianItEEvPT_i.exit

_ZN11OpenImageIO6v3_1_011swap_endianItEEvPT_i.exit: ; preds = %8
  %11 = getelementptr inbounds nuw i8, ptr %0, i64 %2
  %12 = load i16, ptr %11, align 1
  %13 = tail call i16 @llvm.bswap.i16(i16 %12)
  %spec.select = select i1 %6, i16 %13, i16 %12
  %14 = zext i16 %spec.select to i64
  %15 = mul nuw nsw i64 %14, 12
  %16 = add i64 %15, %9
  %.not22 = icmp ugt i64 %16, %1
  br i1 %.not22, label %.loopexit, label %.preheader

.preheader:                                       ; preds = %_ZN11OpenImageIO6v3_1_011swap_endianItEEvPT_i.exit
  %.not = icmp eq i16 %spec.select, 0
  br i1 %.not, label %.loopexit, label %.lr.ph

.lr.ph:                                           ; preds = %.preheader
  %17 = getelementptr inbounds nuw i8, ptr %11, i64 2
  %wide.trip.count = zext i16 %spec.select to i64
  br label %18

18:                                               ; preds = %.lr.ph, %18
  %indvars.iv = phi i64 [ 0, %.lr.ph ], [ %indvars.iv.next, %18 ]
  %19 = mul nuw nsw i64 %indvars.iv, 12
  %20 = getelementptr inbounds nuw i8, ptr %17, i64 %19
  tail call fastcc void @_ZN11OpenImageIO6v3_1_0L13read_exif_tagERNS0_9ImageSpecEPK12TIFFDirEntryNS0_4spanIKhLm18446744073709551615EEEbiRSt3setImSt4lessImESaImEERKNS0_3pvt6TagMapE(ptr noundef nonnull align 8 dereferenceable(160) %3, ptr noundef nonnull %20, ptr nonnull %0, i64 %1, i1 noundef zeroext %6, i32 noundef %7, ptr noundef nonnull align 8 dereferenceable(48) %5, ptr noundef nonnull align 8 dereferenceable(8) %4)
  %indvars.iv.next = add nuw nsw i64 %indvars.iv, 1
  %exitcond.not = icmp eq i64 %indvars.iv.next, %wide.trip.count
  br i1 %exitcond.not, label %.loopexit, label %18, !llvm.loop !99

.loopexit:                                        ; preds = %18, %_ZN11OpenImageIO6v3_1_011swap_endianItEEvPT_i.exit, %.preheader, %8
  %.0 = phi i1 [ false, %8 ], [ true, %.preheader ], [ false, %_ZN11OpenImageIO6v3_1_011swap_endianItEEvPT_i.exit ], [ true, %18 ]
  ret i1 %.0
}